target datalayout = "e-m:e-p270:32:32-p271:32:32-p272:64:64-i64:64-i128:128-f80:128-n8:16:32:64-S128"
target triple = "x86_64-pc-linux-gnu"

; Function Attrs: nounwind sspstrong uwtable
define internal zeroext i1 @pm_unicode_codepoint_match(i32 noundef %0, ptr noundef %1, i64 noundef %2) #0 {
  %4 = alloca i1, align 1
  %5 = alloca i32, align 4
  %6 = alloca ptr, align 8
  %7 = alloca i64, align 8
  %8 = alloca i64, align 8
  %9 = alloca i64, align 8
  %10 = alloca i64, align 8
  %11 = alloca i32, align 4
  store i32 %0, ptr %5, align 4, !tbaa !14
  store ptr %1, ptr %6, align 8, !tbaa !22
  store i64 %2, ptr %7, align 8, !tbaa !12
  call void @llvm.lifetime.start.p0(i64 8, ptr %8) #3
  store i64 0, ptr %8, align 8, !tbaa !12
  call void @llvm.lifetime.start.p0(i64 8, ptr %9) #3
  %12 = load i64, ptr %7, align 8, !tbaa !12
  store i64 %12, ptr %9, align 8, !tbaa !12
  br label %13

13:                                               ; preds = %61, %3
  %14 = load i64, ptr %8, align 8, !tbaa !12
  %15 = load i64, ptr %9, align 8, !tbaa !12
  %16 = icmp ult i64 %14, %15
  br i1 %16, label %17, label %62

17:                                               ; preds = %13
  call void @llvm.lifetime.start.p0(i64 8, ptr %10) #3
  %18 = load i64, ptr %8, align 8, !tbaa !12
  %19 = load i64, ptr %9, align 8, !tbaa !12
  %20 = load i64, ptr %8, align 8, !tbaa !12
  %21 = sub i64 %19, %20
  %22 = udiv i64 %21, 2
  %23 = add i64 %18, %22
  store i64 %23, ptr %10, align 8, !tbaa !12
  %24 = load i64, ptr %10, align 8, !tbaa !12
  %25 = urem i64 %24, 2
  %26 = icmp ne i64 %25, 0
  br i1 %26, label %27, label %30

27:                                               ; preds = %17
  %28 = load i64, ptr %10, align 8, !tbaa !12
  %29 = add i64 %28, -1
  store i64 %29, ptr %10, align 8, !tbaa !12
  br label %30

30:                                               ; preds = %27, %17
  %31 = load i32, ptr %5, align 4, !tbaa !14
  %32 = load ptr, ptr %6, align 8, !tbaa !22
  %33 = load i64, ptr %10, align 8, !tbaa !12
  %34 = getelementptr i32, ptr %32, i64 %33
  %35 = load i32, ptr %34, align 4, !tbaa !14
  %36 = icmp uge i32 %31, %35
  br i1 %36, label %37, label %46

37:                                               ; preds = %30
  %38 = load i32, ptr %5, align 4, !tbaa !14
  %39 = load ptr, ptr %6, align 8, !tbaa !22
  %40 = load i64, ptr %10, align 8, !tbaa !12
  %41 = add i64 %40, 1
  %42 = getelementptr i32, ptr %39, i64 %41
  %43 = load i32, ptr %42, align 4, !tbaa !14
  %44 = icmp ule i32 %38, %43
  br i1 %44, label %45, label %46

45:                                               ; preds = %37
  store i1 true, ptr %4, align 1
  store i32 1, ptr %11, align 4
  br label %59

46:                                               ; preds = %37, %30
  %47 = load i32, ptr %5, align 4, !tbaa !14
  %48 = load ptr, ptr %6, align 8, !tbaa !22
  %49 = load i64, ptr %10, align 8, !tbaa !12
  %50 = getelementptr i32, ptr %48, i64 %49
  %51 = load i32, ptr %50, align 4, !tbaa !14
  %52 = icmp ult i32 %47, %51
  br i1 %52, label %53, label %55

53:                                               ; preds = %46
  %54 = load i64, ptr %10, align 8, !tbaa !12
  store i64 %54, ptr %9, align 8, !tbaa !12
  br label %58

55:                                               ; preds = %46
  %56 = load i64, ptr %10, align 8, !tbaa !12
  %57 = add i64 %56, 2
  store i64 %57, ptr %8, align 8, !tbaa !12
  br label %58

58:                                               ; preds = %55, %53
  store i32 0, ptr %11, align 4
  br label %59

59:                                               ; preds = %58, %45
  call void @llvm.lifetime.end.p0(i64 8, ptr %10) #3
  %60 = load i32, ptr %11, align 4
  switch i32 %60, label %63 [
    i32 0, label %61
  ]

61:                                               ; preds = %59
  br label %13, !llvm.loop !24

62:                                               ; preds = %13
  store i1 false, ptr %4, align 1
  store i32 1, ptr %11, align 4
  br label %63

63:                                               ; preds = %62, %59
  call void @llvm.lifetime.end.p0(i64 8, ptr %9) #3
  call void @llvm.lifetime.end.p0(i64 8, ptr %8) #3
  %64 = load i1, ptr %4, align 1
  ret i1 %64
}

; Function Attrs: nounwind sspstrong uwtable
define internal zeroext i1 @pm_encoding_cesu_8_isupper_char(ptr noundef %0, i64 noundef %1) #0 {
  %3 = alloca i1, align 1
  %4 = alloca ptr, align 8
  %5 = alloca i64, align 8
  %6 = alloca i64, align 8
  %7 = alloca i32, align 4
  %8 = alloca i32, align 4
  store ptr %0, ptr %4, align 8, !tbaa !7
  store i64 %1, ptr %5, align 8, !tbaa !12
  %9 = load ptr, ptr %4, align 8, !tbaa !7
  %10 = load i8, ptr %9, align 1, !tbaa !16
  %11 = zext i8 %10 to i32
  %12 = icmp slt i32 %11, 128
  br i1 %12, label %13, label %24

13:                                               ; preds = %2
  %14 = load ptr, ptr %4, align 8, !tbaa !7
  %15 = load i8, ptr %14, align 1, !tbaa !16
  %16 = zext i8 %15 to i64
  %17 = getelementptr [256 x i8], ptr @pm_encoding_unicode_table, i64 0, i64 %16
  %18 = load i8, ptr %17, align 1, !tbaa !16
  %19 = zext i8 %18 to i32
  %20 = and i32 %19, 4
  %21 = icmp ne i32 %20, 0
  %22 = select i1 %21, i32 1, i32 0
  %23 = icmp ne i32 %22, 0
  store i1 %23, ptr %3, align 1
  br label %47

24:                                               ; preds = %2
  call void @llvm.lifetime.start.p0(i64 8, ptr %6) #3
  call void @llvm.lifetime.start.p0(i64 4, ptr %7) #3
  %25 = load ptr, ptr %4, align 8, !tbaa !7
  %26 = load i64, ptr %5, align 8, !tbaa !12
  %27 = call i32 @pm_cesu_8_codepoint(ptr noundef %25, i64 noundef %26, ptr noundef %6)
  store i32 %27, ptr %7, align 4, !tbaa !14
  %28 = load i32, ptr %7, align 4, !tbaa !14
  %29 = icmp ule i32 %28, 255
  br i1 %29, label %30, label %41

30:                                               ; preds = %24
  %31 = load i32, ptr %7, align 4, !tbaa !14
  %32 = trunc i32 %31 to i8
  %33 = zext i8 %32 to i64
  %34 = getelementptr [256 x i8], ptr @pm_encoding_unicode_table, i64 0, i64 %33
  %35 = load i8, ptr %34, align 1, !tbaa !16
  %36 = zext i8 %35 to i32
  %37 = and i32 %36, 4
  %38 = icmp ne i32 %37, 0
  %39 = select i1 %38, i32 1, i32 0
  %40 = icmp ne i32 %39, 0
  store i1 %40, ptr %3, align 1
  store i32 1, ptr %8, align 4
  br label %46

41:                                               ; preds = %24
  %42 = load i32, ptr %7, align 4, !tbaa !14
  %43 = call zeroext i1 @pm_unicode_codepoint_match(i32 noundef %42, ptr noundef @unicode_isupper_codepoints, i64 noundef 1302)
  %44 = select i1 %43, i32 1, i32 0
  %45 = icmp ne i32 %44, 0
  store i1 %45, ptr %3, align 1
  store i32 1, ptr %8, align 4
  br label %46

46:                                               ; preds = %41, %30
  call void @llvm.lifetime.end.p0(i64 4, ptr %7) #3
  call void @llvm.lifetime.end.p0(i64 8, ptr %6) #3
  br label %47

47:                                               ; preds = %46, %13
  %48 = load i1, ptr %3, align 1
  ret i1 %48
}