; Function Attrs: nofree norecurse nosync nounwind sspstrong memory(argmem: readwrite) uwtable
define internal zeroext i1 @pm_encoding_cesu_8_isupper_char(ptr noundef readonly captures(none) %0, i64 noundef %1) #5 {
  %3 = alloca i64, align 8
  %4 = load i8, ptr %0, align 1, !tbaa !7
  %5 = icmp sgt i8 %4, -1
  br i1 %5, label %6, label %12

6:                                                ; preds = %2
  %7 = zext nneg i8 %4 to i64
  %8 = getelementptr [256 x i8], ptr @pm_encoding_unicode_table, i64 0, i64 %7
  %9 = load i8, ptr %8, align 1, !tbaa !7
  %10 = and i8 %9, 4
  %11 = icmp ne i8 %10, 0
  br label %32

12:                                               ; preds = %2
  call void @llvm.lifetime.start.p0(i64 8, ptr nonnull %3) #9
  %13 = call fastcc i32 @pm_cesu_8_codepoint(ptr noundef nonnull %0, i64 noundef %1, ptr noundef %3)
  %14 = icmp samesign ult i32 %13, 256
  br i1 %14, label %15, label %.preheader

15:                                               ; preds = %12
  %16 = zext nneg i32 %13 to i64
  %17 = getelementptr [256 x i8], ptr @pm_encoding_unicode_table, i64 0, i64 %16
  %18 = load i8, ptr %17, align 1, !tbaa !7
  %19 = and i8 %18, 4
  %20 = icmp ne i8 %19, 0
  br label %pm_unicode_codepoint_match.exit

.preheader:                                       ; preds = %12, %29
  %.02135.i = phi i64 [ %.2.i, %29 ], [ 1302, %12 ]
  %.02234.i = phi i64 [ %.224.i, %29 ], [ 0, %12 ]
  %21 = sub nuw i64 %.02135.i, %.02234.i
  %22 = lshr i64 %21, 1
  %23 = add i64 %22, %.02234.i
  %spec.select.i = and i64 %23, -2
  %24 = getelementptr i32, ptr @unicode_isupper_codepoints, i64 %spec.select.i
  %25 = load i32, ptr %24, align 8, !tbaa !13
  %.not29.i = icmp ult i32 %13, %25
  br i1 %.not29.i, label %29, label %26

26:                                               ; preds = %.preheader
  %27 = getelementptr i8, ptr %24, i64 4
  %28 = load i32, ptr %27, align 4, !tbaa !13
  %.not30.i = icmp ugt i32 %13, %28
  br i1 %.not30.i, label %29, label %pm_unicode_codepoint_match.exit

29:                                               ; preds = %26, %.preheader
  %.2.i = phi i64 [ %spec.select.i, %.preheader ], [ %.02135.i, %26 ]
  %30 = add i64 %spec.select.i, 2
  %.224.i = select i1 %.not29.i, i64 %.02234.i, i64 %30
  %31 = icmp ult i64 %.224.i, %.2.i
  br i1 %31, label %.preheader, label %pm_unicode_codepoint_match.exit, !llvm.loop !15

pm_unicode_codepoint_match.exit:                  ; preds = %29, %26, %15
  %.1 = phi i1 [ %20, %15 ], [ false, %29 ], [ true, %26 ]
  call void @llvm.lifetime.end.p0(i64 8, ptr nonnull %3) #9
  br label %32

32:                                               ; preds = %pm_unicode_codepoint_match.exit, %6
  %.0 = phi i1 [ %11, %6 ], [ %.1, %pm_unicode_codepoint_match.exit ]
  ret i1 %.0
}